target datalayout = "e-m:e-p270:32:32-p271:32:32-p272:64:64-i64:64-i128:128-f80:128-n8:16:32:64-S128"
target triple = "x86_64-pc-linux-gnu"

%"class.llvm::pdb::LayoutItemBase" = type <{ ptr, ptr, ptr, %"class.llvm::BitVector", %"class.std::__cxx11::basic_string", i32, i32, i32, i8, [3 x i8] }>
%"class.llvm::BitVector" = type <{ %"class.llvm::SmallVector", i32, [4 x i8] }>
%"class.llvm::SmallVector" = type { %"class.llvm::SmallVectorImpl", %"struct.llvm::SmallVectorStorage" }
%"class.llvm::SmallVectorImpl" = type { %"class.llvm::SmallVectorTemplateBase" }
%"class.llvm::SmallVectorTemplateBase" = type { %"class.llvm::SmallVectorTemplateCommon" }
%"class.llvm::SmallVectorTemplateCommon" = type { %"class.llvm::SmallVectorBase" }
%"class.llvm::SmallVectorBase" = type { ptr, i32, i32 }
%"struct.llvm::SmallVectorStorage" = type { [48 x i8] }
%"class.std::__cxx11::basic_string" = type { %"struct.std::__cxx11::basic_string<char>::_Alloc_hider", i64, %union.anon }
%"struct.std::__cxx11::basic_string<char>::_Alloc_hider" = type { ptr }
%union.anon = type { i64, [8 x i8] }

; Function Attrs: mustprogress nounwind uwtable
define linkonce_odr hidden noundef ptr @_ZNK4llvm25SmallVectorTemplateCommonImvE10getFirstElEv(ptr noundef nonnull align 8 dereferenceable(16) %0) #0 comdat align 2 {
  %2 = alloca ptr, align 8
  store ptr %0, ptr %2, align 8
  %3 = load ptr, ptr %2, align 8
  %4 = getelementptr inbounds i8, ptr %3, i64 16
  ret ptr %4
}

; Function Attrs: mustprogress nounwind uwtable
define linkonce_odr hidden noundef ptr @_ZN4llvm25SmallVectorTemplateCommonImvE5beginEv(ptr noundef nonnull align 8 dereferenceable(16) %0) #0 comdat align 2 {
  %2 = alloca ptr, align 8
  store ptr %0, ptr %2, align 8
  %3 = load ptr, ptr %2, align 8
  %4 = getelementptr inbounds nuw %"class.llvm::SmallVectorBase", ptr %3, i32 0, i32 0
  %5 = load ptr, ptr %4, align 8
  ret ptr %5
}

; Function Attrs: mustprogress nounwind uwtable
define linkonce_odr hidden void @_ZN4llvm25SmallVectorTemplateCommonImvEC2Em(ptr noundef nonnull align 8 dereferenceable(16) %0, i64 noundef %1) unnamed_addr #0 comdat align 2 {
  %3 = alloca ptr, align 8
  %4 = alloca i64, align 8
  store ptr %0, ptr %3, align 8
  store i64 %1, ptr %4, align 8
  %5 = load ptr, ptr %3, align 8
  %6 = call noundef ptr @_ZNK4llvm25SmallVectorTemplateCommonImvE10getFirstElEv(ptr noundef nonnull align 8 dereferenceable(16) %5)
  %7 = load i64, ptr %4, align 8
  call void @_ZN4llvm15SmallVectorBaseIjEC2EPvm(ptr noundef nonnull align 8 dereferenceable(16) %5, ptr noundef %6, i64 noundef %7)
  ret void
}

; Function Attrs: mustprogress nounwind uwtable
define linkonce_odr hidden noundef ptr @_ZN4llvm25SmallVectorTemplateCommonImvE3endEv(ptr noundef nonnull align 8 dereferenceable(16) %0) #0 comdat align 2 {
  %2 = alloca ptr, align 8
  store ptr %0, ptr %2, align 8
  %3 = load ptr, ptr %2, align 8
  %4 = call noundef ptr @_ZN4llvm25SmallVectorTemplateCommonImvE5beginEv(ptr noundef nonnull align 8 dereferenceable(16) %3)
  %5 = call noundef i64 @_ZNK4llvm15SmallVectorBaseIjE4sizeEv(ptr noundef nonnull align 8 dereferenceable(16) %3)
  %6 = getelementptr inbounds i64, ptr %4, i64 %5
  ret ptr %6
}

; Function Attrs: mustprogress nounwind uwtable
define linkonce_odr hidden void @_ZN4llvm23SmallVectorTemplateBaseImLb1EEC2Em(ptr noundef nonnull align 8 dereferenceable(16) %0, i64 noundef %1) unnamed_addr #0 comdat align 2 {
  %3 = alloca ptr, align 8
  %4 = alloca i64, align 8
  store ptr %0, ptr %3, align 8
  store i64 %1, ptr %4, align 8
  %5 = load ptr, ptr %3, align 8
  %6 = load i64, ptr %4, align 8
  call void @_ZN4llvm25SmallVectorTemplateCommonImvEC2Em(ptr noundef nonnull align 8 dereferenceable(16) %5, i64 noundef %6)
  ret void
}

; Function Attrs: mustprogress nounwind uwtable
define linkonce_odr hidden noundef nonnull align 8 dereferenceable(8) ptr @_ZN4llvm25SmallVectorTemplateCommonImvE4backEv(ptr noundef nonnull align 8 dereferenceable(16) %0) #0 comdat align 2 {
  %2 = alloca ptr, align 8
  store ptr %0, ptr %2, align 8
  %3 = load ptr, ptr %2, align 8
  %4 = call noundef ptr @_ZN4llvm25SmallVectorTemplateCommonImvE3endEv(ptr noundef nonnull align 8 dereferenceable(16) %3)
  %5 = getelementptr inbounds i64, ptr %4, i64 -1
  ret ptr %5
}

; Function Attrs: mustprogress nounwind uwtable
define linkonce_odr hidden void @_ZN4llvm15SmallVectorImplImEC2Ej(ptr noundef nonnull align 8 dereferenceable(16) %0, i32 noundef %1) unnamed_addr #0 comdat align 2 {
  %3 = alloca ptr, align 8
  %4 = alloca i32, align 4
  store ptr %0, ptr %3, align 8
  store i32 %1, ptr %4, align 4
  %5 = load ptr, ptr %3, align 8
  %6 = load i32, ptr %4, align 4
  %7 = zext i32 %6 to i64
  call void @_ZN4llvm23SmallVectorTemplateBaseImLb1EEC2Em(ptr noundef nonnull align 8 dereferenceable(16) %5, i64 noundef %7)
  ret void
}

; Function Attrs: mustprogress nounwind uwtable
define linkonce_odr hidden void @_ZN4llvm9BitVector17clear_unused_bitsEv(ptr noundef nonnull align 8 dereferenceable(68) %0) #0 comdat align 2 {
  %2 = alloca ptr, align 8
  store ptr %0, ptr %2, align 8
  %3 = load ptr, ptr %2, align 8
  call void @_ZN4llvm9BitVector15set_unused_bitsEb(ptr noundef nonnull align 8 dereferenceable(68) %3, i1 noundef zeroext false)
  ret void
}

; Function Attrs: mustprogress nounwind uwtable
define linkonce_odr hidden noundef i32 @_ZNK4llvm9BitVector11NumBitWordsEj(ptr noundef nonnull align 8 dereferenceable(68) %0, i32 noundef %1) #0 comdat align 2 {
  %3 = alloca ptr, align 8
  %4 = alloca i32, align 4
  store ptr %0, ptr %3, align 8
  store i32 %1, ptr %4, align 4
  %5 = load i32, ptr %4, align 4
  %6 = add i32 %5, 64
  %7 = sub i32 %6, 1
  %8 = udiv i32 %7, 64
  ret i32 %8
}

; Function Attrs: mustprogress nounwind uwtable
define linkonce_odr hidden void @_ZN4llvm9BitVector15set_unused_bitsEb(ptr noundef nonnull align 8 dereferenceable(68) %0, i1 noundef zeroext %1) #0 comdat align 2 {
  %3 = alloca ptr, align 8
  %4 = alloca i8, align 1
  %5 = alloca i32, align 4
  %6 = alloca i64, align 8
  store ptr %0, ptr %3, align 8
  %7 = zext i1 %1 to i8
  store i8 %7, ptr %4, align 1
  %8 = load ptr, ptr %3, align 8
  %9 = getelementptr inbounds nuw %"class.llvm::BitVector", ptr %8, i32 0, i32 1
  %10 = load i32, ptr %9, align 8
  %11 = urem i32 %10, 64
  store i32 %11, ptr %5, align 4
  %12 = load i32, ptr %5, align 4
  %13 = icmp ne i32 %12, 0
  br i1 %13, label %14, label %34

14:                                               ; preds = %2
  %15 = load i32, ptr %5, align 4
  %16 = zext i32 %15 to i64
  %17 = shl i64 -1, %16
  store i64 %17, ptr %6, align 8
  %18 = load i8, ptr %4, align 1
  %19 = trunc i8 %18 to i1
  br i1 %19, label %20, label %26

20:                                               ; preds = %14
  %21 = load i64, ptr %6, align 8
  %22 = getelementptr inbounds nuw %"class.llvm::BitVector", ptr %8, i32 0, i32 0
  %23 = call noundef nonnull align 8 dereferenceable(8) ptr @_ZN4llvm25SmallVectorTemplateCommonImvE4backEv(ptr noundef nonnull align 8 dereferenceable(16) %22)
  %24 = load i64, ptr %23, align 8
  %25 = or i64 %24, %21
  store i64 %25, ptr %23, align 8
  br label %33

26:                                               ; preds = %14
  %27 = load i64, ptr %6, align 8
  %28 = xor i64 %27, -1
  %29 = getelementptr inbounds nuw %"class.llvm::BitVector", ptr %8, i32 0, i32 0
  %30 = call noundef nonnull align 8 dereferenceable(8) ptr @_ZN4llvm25SmallVectorTemplateCommonImvE4backEv(ptr noundef nonnull align 8 dereferenceable(16) %29)
  %31 = load i64, ptr %30, align 8
  %32 = and i64 %31, %28
  store i64 %32, ptr %30, align 8
  br label %33

33:                                               ; preds = %26, %20
  br label %34

34:                                               ; preds = %33, %2
  ret void
}

; Function Attrs: mustprogress nounwind uwtable
define linkonce_odr hidden void @_ZN4llvm11SmallVectorImLj6EEC2Ev(ptr noundef nonnull align 8 dereferenceable(64) %0) unnamed_addr #0 comdat align 2 {
  %2 = alloca ptr, align 8
  store ptr %0, ptr %2, align 8
  %3 = load ptr, ptr %2, align 8
  call void @_ZN4llvm15SmallVectorImplImEC2Ej(ptr noundef nonnull align 8 dereferenceable(16) %3, i32 noundef 6)
  ret void
}

; Function Attrs: mustprogress nounwind uwtable
define linkonce_odr hidden void @_ZN4llvm9BitVector6resizeEjb(ptr noundef nonnull align 8 dereferenceable(68) %0, i32 noundef %1, i1 noundef zeroext %2) #0 comdat align 2 {
  %4 = alloca ptr, align 8
  %5 = alloca i32, align 4
  %6 = alloca i8, align 1
  store ptr %0, ptr %4, align 8
  store i32 %1, ptr %5, align 4
  %7 = zext i1 %2 to i8
  store i8 %7, ptr %6, align 1
  %8 = load ptr, ptr %4, align 8
  %9 = load i8, ptr %6, align 1
  %10 = trunc i8 %9 to i1
  call void @_ZN4llvm9BitVector15set_unused_bitsEb(ptr noundef nonnull align 8 dereferenceable(68) %8, i1 noundef zeroext %10)
  %11 = load i32, ptr %5, align 4
  %12 = getelementptr inbounds nuw %"class.llvm::BitVector", ptr %8, i32 0, i32 1
  store i32 %11, ptr %12, align 8
  %13 = getelementptr inbounds nuw %"class.llvm::BitVector", ptr %8, i32 0, i32 0
  %14 = load i32, ptr %5, align 4
  %15 = call noundef i32 @_ZNK4llvm9BitVector11NumBitWordsEj(ptr noundef nonnull align 8 dereferenceable(68) %8, i32 noundef %14)
  %16 = zext i32 %15 to i64
  %17 = load i8, ptr %6, align 1
  %18 = trunc i8 %17 to i1
  %19 = zext i1 %18 to i64
  %20 = sub i64 0, %19
  call void @_ZN4llvm15SmallVectorImplImE6resizeEmm(ptr noundef nonnull align 8 dereferenceable(16) %13, i64 noundef %16, i64 noundef %20)
  call void @_ZN4llvm9BitVector17clear_unused_bitsEv(ptr noundef nonnull align 8 dereferenceable(68) %8)
  ret void
}

; Function Attrs: mustprogress nounwind uwtable
define linkonce_odr hidden void @_ZN4llvm9BitVectorC2Ev(ptr noundef nonnull align 8 dereferenceable(68) %0) unnamed_addr #0 comdat align 2 {
  %2 = alloca ptr, align 8
  store ptr %0, ptr %2, align 8
  %3 = load ptr, ptr %2, align 8
  %4 = getelementptr inbounds nuw %"class.llvm::BitVector", ptr %3, i32 0, i32 0
  call void @_ZN4llvm11SmallVectorImLj6EEC2Ev(ptr noundef nonnull align 8 dereferenceable(64) %4)
  %5 = getelementptr inbounds nuw %"class.llvm::BitVector", ptr %3, i32 0, i32 1
  store i32 0, ptr %5, align 8
  ret void
}

; Function Attrs: mustprogress nounwind uwtable
define dso_local void @_ZN4llvm3pdb14LayoutItemBaseC2EPKNS0_13UDTLayoutBaseEPKNS0_9PDBSymbolERKNSt7__cxx1112basic_stringIcSt11char_traitsIcESaIcEEEjjb(ptr noundef nonnull align 8 dereferenceable(141) %0, ptr noundef %1, ptr noundef %2, ptr noundef nonnull align 8 dereferenceable(32) %3, i32 noundef %4, i32 noundef %5, i1 noundef zeroext %6) unnamed_addr #0 align 2 {
  %8 = alloca ptr, align 8
  %9 = alloca ptr, align 8
  %10 = alloca ptr, align 8
  %11 = alloca ptr, align 8
  %12 = alloca i32, align 4
  %13 = alloca i32, align 4
  %14 = alloca i8, align 1
  store ptr %0, ptr %8, align 8
  store ptr %1, ptr %9, align 8
  store ptr %2, ptr %10, align 8
  store ptr %3, ptr %11, align 8
  store i32 %4, ptr %12, align 4
  store i32 %5, ptr %13, align 4
  %15 = zext i1 %6 to i8
  store i8 %15, ptr %14, align 1
  %16 = load ptr, ptr %8, align 8
  store ptr getelementptr inbounds inrange(-16, 40) ({ [7 x ptr] }, ptr @_ZTVN4llvm3pdb14LayoutItemBaseE, i32 0, i32 0, i32 2), ptr %16, align 8
  %17 = getelementptr inbounds nuw %"class.llvm::pdb::LayoutItemBase", ptr %16, i32 0, i32 1
  %18 = load ptr, ptr %10, align 8
  store ptr %18, ptr %17, align 8
  %19 = getelementptr inbounds nuw %"class.llvm::pdb::LayoutItemBase", ptr %16, i32 0, i32 2
  %20 = load ptr, ptr %9, align 8
  store ptr %20, ptr %19, align 8
  %21 = getelementptr inbounds nuw %"class.llvm::pdb::LayoutItemBase", ptr %16, i32 0, i32 3
  call void @_ZN4llvm9BitVectorC2Ev(ptr noundef nonnull align 8 dereferenceable(68) %21)
  %22 = getelementptr inbounds nuw %"class.llvm::pdb::LayoutItemBase", ptr %16, i32 0, i32 4
  %23 = load ptr, ptr %11, align 8
  call void @_ZNSt7__cxx1112basic_stringIcSt11char_traitsIcESaIcEEC1ERKS4_(ptr noundef nonnull align 8 dereferenceable(32) %22, ptr noundef nonnull align 8 dereferenceable(32) %23)
  %24 = getelementptr inbounds nuw %"class.llvm::pdb::LayoutItemBase", ptr %16, i32 0, i32 5
  %25 = load i32, ptr %12, align 4
  store i32 %25, ptr %24, align 8
  %26 = getelementptr inbounds nuw %"class.llvm::pdb::LayoutItemBase", ptr %16, i32 0, i32 6
  %27 = load i32, ptr %13, align 4
  store i32 %27, ptr %26, align 4
  %28 = getelementptr inbounds nuw %"class.llvm::pdb::LayoutItemBase", ptr %16, i32 0, i32 7
  %29 = load i32, ptr %13, align 4
  store i32 %29, ptr %28, align 8
  %30 = getelementptr inbounds nuw %"class.llvm::pdb::LayoutItemBase", ptr %16, i32 0, i32 8
  %31 = load i8, ptr %14, align 1
  %32 = trunc i8 %31 to i1
  %33 = zext i1 %32 to i8
  store i8 %33, ptr %30, align 4
  %34 = getelementptr inbounds nuw %"class.llvm::pdb::LayoutItemBase", ptr %16, i32 0, i32 3
  %35 = getelementptr inbounds nuw %"class.llvm::pdb::LayoutItemBase", ptr %16, i32 0, i32 6
  %36 = load i32, ptr %35, align 4
  call void @_ZN4llvm9BitVector6resizeEjb(ptr noundef nonnull align 8 dereferenceable(68) %34, i32 noundef %36, i1 noundef zeroext true)
  ret void
}