; Function Attrs: mustprogress nounwind uwtable
define dso_local void @_ZN4llvm3pdb14LayoutItemBaseC2EPKNS0_13UDTLayoutBaseEPKNS0_9PDBSymbolERKNSt7__cxx1112basic_stringIcSt11char_traitsIcESaIcEEEjjb(ptr noundef nonnull align 8 dereferenceable(141) %0, ptr noundef %1, ptr noundef %2, ptr noundef nonnull align 8 dereferenceable(32) %3, i32 noundef %4, i32 noundef %5, i1 noundef zeroext %6) unnamed_addr #0 align 2 {
  %8 = zext i1 %6 to i8
  store ptr getelementptr inbounds inrange(-16, 40) (i8, ptr @_ZTVN4llvm3pdb14LayoutItemBaseE, i64 16), ptr %0, align 8
  %9 = getelementptr inbounds nuw i8, ptr %0, i64 8
  store ptr %2, ptr %9, align 8
  %10 = getelementptr inbounds nuw i8, ptr %0, i64 16
  store ptr %1, ptr %10, align 8
  %11 = getelementptr inbounds nuw i8, ptr %0, i64 24
  %12 = getelementptr inbounds i8, ptr %0, i64 40
  tail call void @_ZN4llvm15SmallVectorBaseIjEC2EPvm(ptr noundef nonnull align 8 dereferenceable(16) %11, ptr noundef nonnull %12, i64 noundef 6) #17
  %13 = getelementptr inbounds i8, ptr %0, i64 88
  store i32 0, ptr %13, align 8
  %14 = getelementptr inbounds nuw i8, ptr %0, i64 96
  tail call void @_ZNSt7__cxx1112basic_stringIcSt11char_traitsIcESaIcEEC1ERKS4_(ptr noundef nonnull align 8 dereferenceable(32) %14, ptr noundef nonnull align 8 dereferenceable(32) %3) #17
  %15 = getelementptr inbounds nuw i8, ptr %0, i64 128
  store i32 %4, ptr %15, align 8
  %16 = getelementptr inbounds nuw i8, ptr %0, i64 132
  store i32 %5, ptr %16, align 4
  %17 = getelementptr inbounds nuw i8, ptr %0, i64 136
  store i32 %5, ptr %17, align 8
  %18 = getelementptr inbounds nuw i8, ptr %0, i64 140
  store i8 %8, ptr %18, align 4
  %19 = load i32, ptr %13, align 8
  %20 = and i32 %19, 63
  %.not.i.i = icmp eq i32 %20, 0
  br i1 %.not.i.i, label %_ZN4llvm9BitVector15set_unused_bitsEb.exit.i, label %21

21:                                               ; preds = %7
  %22 = zext nneg i32 %20 to i64
  %23 = shl nsw i64 -1, %22
  %24 = load ptr, ptr %11, align 8
  %25 = tail call noundef i64 @_ZNK4llvm15SmallVectorBaseIjE4sizeEv(ptr noundef nonnull align 8 dereferenceable(16) %11) #17
  %26 = getelementptr inbounds i64, ptr %24, i64 %25
  %27 = getelementptr inbounds i8, ptr %26, i64 -8
  %28 = load i64, ptr %27, align 8
  %29 = or i64 %28, %23
  store i64 %29, ptr %27, align 8
  br label %_ZN4llvm9BitVector15set_unused_bitsEb.exit.i

_ZN4llvm9BitVector15set_unused_bitsEb.exit.i:     ; preds = %21, %7
  store i32 %5, ptr %13, align 8
  %30 = add i32 %5, 63
  %31 = lshr i32 %30, 6
  %32 = zext nneg i32 %31 to i64
  tail call void @_ZN4llvm15SmallVectorImplImE6resizeEmm(ptr noundef nonnull align 8 dereferenceable(16) %11, i64 noundef %32, i64 noundef -1)
  %33 = load i32, ptr %13, align 8
  %34 = and i32 %33, 63
  %.not.i.i.i = icmp eq i32 %34, 0
  br i1 %.not.i.i.i, label %_ZN4llvm9BitVector6resizeEjb.exit, label %35

35:                                               ; preds = %_ZN4llvm9BitVector15set_unused_bitsEb.exit.i
  %36 = zext nneg i32 %34 to i64
  %37 = shl nsw i64 -1, %36
  %38 = xor i64 %37, -1
  %39 = load ptr, ptr %11, align 8
  %40 = tail call noundef i64 @_ZNK4llvm15SmallVectorBaseIjE4sizeEv(ptr noundef nonnull align 8 dereferenceable(16) %11) #17
  %41 = getelementptr inbounds i64, ptr %39, i64 %40
  %42 = getelementptr inbounds i8, ptr %41, i64 -8
  %43 = load i64, ptr %42, align 8
  %44 = and i64 %43, %38
  store i64 %44, ptr %42, align 8
  br label %_ZN4llvm9BitVector6resizeEjb.exit

_ZN4llvm9BitVector6resizeEjb.exit:                ; preds = %_ZN4llvm9BitVector15set_unused_bitsEb.exit.i, %35
  ret void
}